target datalayout = "e-m:e-p270:32:32-p271:32:32-p272:64:64-i64:64-i128:128-f80:128-n8:16:32:64-S128"
target triple = "x86_64-pc-linux-gnu"

%class.ShenandoahCollectorPolicy = type { i64, i64, i64, i64, i64, i32, i64, i64, i64, [34 x i64], [5 x i64], %struct.ShenandoahSharedFlag, ptr }
%struct.ShenandoahSharedFlag = type { [64 x i8], i8, [64 x i8] }

; Function Attrs: mustprogress nounwind uwtable
define hidden void @_ZN25ShenandoahCollectorPolicy25record_success_concurrentEb(ptr noundef nonnull align 8 dereferenceable(528) %0, i1 noundef zeroext %1) #1 align 2 {
  %3 = alloca ptr, align 8
  %4 = alloca i8, align 1
  store ptr %0, ptr %3, align 8
  %5 = zext i1 %1 to i8
  store i8 %5, ptr %4, align 1
  %6 = load ptr, ptr %3, align 8
  %7 = getelementptr inbounds %class.ShenandoahCollectorPolicy, ptr %6, i32 0, i32 5
  store i32 0, ptr %7, align 8
  %8 = getelementptr inbounds %class.ShenandoahCollectorPolicy, ptr %6, i32 0, i32 0
  %9 = load i64, ptr %8, align 8
  %10 = add i64 %9, 1
  store i64 %10, ptr %8, align 8
  %11 = load i8, ptr %4, align 1
  %12 = trunc i8 %11 to i1
  br i1 %12, label %13, label %17

13:                                               ; preds = %2
  %14 = getelementptr inbounds %class.ShenandoahCollectorPolicy, ptr %6, i32 0, i32 1
  %15 = load i64, ptr %14, align 8
  %16 = add i64 %15, 1
  store i64 %16, ptr %14, align 8
  br label %17

17:                                               ; preds = %13, %2
  ret void
}