; Function Attrs: mustprogress nofree norecurse nosync nounwind willreturn memory(argmem: readwrite) uwtable
define hidden void @_ZN25ShenandoahCollectorPolicy25record_success_concurrentEb(ptr nocapture noundef nonnull align 8 dereferenceable(528) %0, i1 noundef zeroext %1) local_unnamed_addr #1 align 2 {
  %3 = getelementptr inbounds i8, ptr %0, i64 40
  store i32 0, ptr %3, align 8
  %4 = load i64, ptr %0, align 8
  %5 = add i64 %4, 1
  store i64 %5, ptr %0, align 8
  br i1 %1, label %6, label %10

6:                                                ; preds = %2
  %7 = getelementptr inbounds i8, ptr %0, i64 8
  %8 = load i64, ptr %7, align 8
  %9 = add i64 %8, 1
  store i64 %9, ptr %7, align 8
  br label %10

10:                                               ; preds = %6, %2
  ret void
}